target datalayout = "e-m:e-p270:32:32-p271:32:32-p272:64:64-i64:64-i128:128-f80:128-n8:16:32:64-S128"
target triple = "x86_64-pc-linux-gnu"

@.str.457 = private unnamed_addr constant [19 x i8] c"No timeout control\00", align 1
@.str.458 = private unnamed_addr constant [6 x i8] c"%u ms\00", align 1
@.str.459 = private unnamed_addr constant [10 x i8] c"%u.%03u s\00", align 1

; Function Attrs: null_pointer_is_valid sspstrong uwtable
define internal void @sam_timeout_base(ptr noundef %0, i32 noundef %1) #0 {
  %3 = alloca ptr, align 8
  %4 = alloca i32, align 4
  store ptr %0, ptr %3, align 8
  store i32 %1, ptr %4, align 4
  %5 = load i32, ptr %4, align 4
  %6 = icmp eq i32 %5, 0
  br i1 %6, label %7, label %12

7:                                                ; preds = %2
  %8 = load ptr, ptr %3, align 8
  %9 = load ptr, ptr %3, align 8
  %10 = call i64 @llvm.objectsize.i64.p0(ptr %9, i1 false, i1 true, i1 true)
  %11 = call i32 (ptr, i64, i32, i64, ptr, ...) @__snprintf_chk(ptr noundef %8, i64 noundef 240, i32 noundef 2, i64 noundef %10, ptr noundef @.str.457)
  br label %37

12:                                               ; preds = %2
  %13 = load i32, ptr %4, align 4
  %14 = icmp ule i32 1, %13
  br i1 %14, label %15, label %25

15:                                               ; preds = %12
  %16 = load i32, ptr %4, align 4
  %17 = icmp ule i32 %16, 19
  br i1 %17, label %18, label %25

18:                                               ; preds = %15
  %19 = load ptr, ptr %3, align 8
  %20 = load ptr, ptr %3, align 8
  %21 = call i64 @llvm.objectsize.i64.p0(ptr %20, i1 false, i1 true, i1 true)
  %22 = load i32, ptr %4, align 4
  %23 = mul i32 %22, 50
  %24 = call i32 (ptr, i64, i32, i64, ptr, ...) @__snprintf_chk(ptr noundef %19, i64 noundef 240, i32 noundef 2, i64 noundef %21, ptr noundef @.str.458, i32 noundef %23)
  br label %36

25:                                               ; preds = %15, %12
  %26 = load ptr, ptr %3, align 8
  %27 = load ptr, ptr %3, align 8
  %28 = call i64 @llvm.objectsize.i64.p0(ptr %27, i1 false, i1 true, i1 true)
  %29 = load i32, ptr %4, align 4
  %30 = mul i32 %29, 50
  %31 = udiv i32 %30, 1000
  %32 = load i32, ptr %4, align 4
  %33 = mul i32 %32, 50
  %34 = urem i32 %33, 1000
  %35 = call i32 (ptr, i64, i32, i64, ptr, ...) @__snprintf_chk(ptr noundef %26, i64 noundef 240, i32 noundef 2, i64 noundef %28, ptr noundef @.str.459, i32 noundef %31, i32 noundef %34)
  br label %36

36:                                               ; preds = %25, %18
  br label %37

37:                                               ; preds = %36, %7
  ret void
}