; Function Attrs: nofree null_pointer_is_valid sspstrong uwtable
define internal void @sam_timeout_base(ptr noundef %0, i32 noundef %1) #2 {
  %3 = icmp eq i32 %1, 0
  br i1 %3, label %4, label %6

4:                                                ; preds = %2
  %5 = tail call i32 (ptr, i64, i32, i64, ptr, ...) @__snprintf_chk(ptr noundef %0, i64 noundef 240, i32 noundef 2, i64 noundef -1, ptr noundef nonnull @.str.457)
  br label %15

6:                                                ; preds = %2
  %7 = icmp ult i32 %1, 20
  %8 = mul i32 %1, 50
  br i1 %7, label %9, label %11

9:                                                ; preds = %6
  %10 = tail call i32 (ptr, i64, i32, i64, ptr, ...) @__snprintf_chk(ptr noundef %0, i64 noundef 240, i32 noundef 2, i64 noundef -1, ptr noundef nonnull @.str.458, i32 noundef %8)
  br label %15

11:                                               ; preds = %6
  %12 = udiv i32 %8, 1000
  %13 = urem i32 %8, 1000
  %14 = tail call i32 (ptr, i64, i32, i64, ptr, ...) @__snprintf_chk(ptr noundef %0, i64 noundef 240, i32 noundef 2, i64 noundef -1, ptr noundef nonnull @.str.459, i32 noundef %12, i32 noundef %13)
  br label %15

15:                                               ; preds = %9, %11, %4
  ret void
}